; Function Attrs: nounwind uwtable
define ptr @l_Lean_commitIfNoEx___rarg(ptr noundef %0, ptr noundef %1, ptr noundef %2, ptr noundef %3) #0 {
  %5 = getelementptr inbounds nuw i8, ptr %0, i64 16
  %6 = load ptr, ptr %5, align 8, !tbaa !4
  %7 = ptrtoint ptr %6 to i64
  %8 = and i64 %7, 1
  %.not = icmp eq i64 %8, 0
  br i1 %.not, label %9, label %lean_inc.exit19

9:                                                ; preds = %4
  %.val.i = load i32, ptr %6, align 4, !tbaa !8
  %10 = icmp sgt i32 %.val.i, 0
  br i1 %10, label %11, label %13, !prof !11

11:                                               ; preds = %9
  %12 = add nuw i32 %.val.i, 1
  store i32 %12, ptr %6, align 4, !tbaa !8
  br label %lean_inc.exit19

13:                                               ; preds = %9
  %.not.i20 = icmp eq i32 %.val.i, 0
  br i1 %.not.i20, label %lean_inc.exit19, label %14

14:                                               ; preds = %13
  tail call void @lean_inc_ref_cold(ptr noundef nonnull %6) #3
  br label %lean_inc.exit19

lean_inc.exit19:                                  ; preds = %14, %13, %11, %4
  %15 = ptrtoint ptr %0 to i64
  %16 = and i64 %15, 1
  %.not27 = icmp eq i64 %16, 0
  br i1 %.not27, label %17, label %lean_dec.exit

17:                                               ; preds = %lean_inc.exit19
  %18 = load i32, ptr %0, align 4, !tbaa !8
  %19 = icmp sgt i32 %18, 1
  br i1 %19, label %20, label %22, !prof !11

20:                                               ; preds = %17
  %21 = add nsw i32 %18, -1
  store i32 %21, ptr %0, align 4, !tbaa !8
  br label %lean_dec.exit

22:                                               ; preds = %17
  %.not.i = icmp eq i32 %18, 0
  br i1 %.not.i, label %lean_dec.exit, label %23

23:                                               ; preds = %22
  tail call void @lean_dec_ref_cold(ptr noundef nonnull %0) #3
  br label %lean_dec.exit

lean_dec.exit:                                    ; preds = %23, %22, %20, %lean_inc.exit19
  %24 = getelementptr inbounds nuw i8, ptr %1, i64 8
  %25 = load ptr, ptr %24, align 8, !tbaa !4
  %26 = ptrtoint ptr %25 to i64
  %27 = and i64 %26, 1
  %.not28 = icmp eq i64 %27, 0
  br i1 %.not28, label %28, label %lean_inc.exit18

28:                                               ; preds = %lean_dec.exit
  %.val.i21 = load i32, ptr %25, align 4, !tbaa !8
  %29 = icmp sgt i32 %.val.i21, 0
  br i1 %29, label %30, label %32, !prof !11

30:                                               ; preds = %28
  %31 = add nuw i32 %.val.i21, 1
  store i32 %31, ptr %25, align 4, !tbaa !8
  br label %lean_inc.exit18

32:                                               ; preds = %28
  %.not.i22 = icmp eq i32 %.val.i21, 0
  br i1 %.not.i22, label %lean_inc.exit18, label %33

33:                                               ; preds = %32
  tail call void @lean_inc_ref_cold(ptr noundef nonnull %25) #3
  br label %lean_inc.exit18

lean_inc.exit18:                                  ; preds = %33, %32, %30, %lean_dec.exit
  br i1 %.not, label %34, label %lean_inc.exit

34:                                               ; preds = %lean_inc.exit18
  %.val.i24 = load i32, ptr %6, align 4, !tbaa !8
  %35 = icmp sgt i32 %.val.i24, 0
  br i1 %35, label %36, label %38, !prof !11

36:                                               ; preds = %34
  %37 = add nuw i32 %.val.i24, 1
  store i32 %37, ptr %6, align 4, !tbaa !8
  br label %lean_inc.exit

38:                                               ; preds = %34
  %.not.i25 = icmp eq i32 %.val.i24, 0
  br i1 %.not.i25, label %lean_inc.exit, label %39

39:                                               ; preds = %38
  tail call void @lean_inc_ref_cold(ptr noundef nonnull %6) #3
  br label %lean_inc.exit

lean_inc.exit:                                    ; preds = %39, %38, %36, %lean_inc.exit18
  tail call void @lean_inc_heartbeat() #3
  %40 = tail call noalias ptr @mi_malloc_small(i64 noundef 56) #3
  %41 = icmp eq ptr %40, null
  br i1 %41, label %42, label %lean_alloc_closure.exit

42:                                               ; preds = %lean_inc.exit
  tail call void @lean_internal_panic_out_of_memory() #4
  unreachable

lean_alloc_closure.exit:                          ; preds = %lean_inc.exit
  %43 = getelementptr inbounds nuw i8, ptr %40, i64 4
  store i32 1, ptr %40, align 4, !tbaa !8
  store i32 -184549320, ptr %43, align 4
  %44 = getelementptr inbounds nuw i8, ptr %40, i64 8
  store ptr @l_Lean_commitIfNoEx___rarg___lambda__1, ptr %44, align 8, !tbaa !4
  %45 = getelementptr inbounds nuw i8, ptr %40, i64 16
  store i16 5, ptr %45, align 8, !tbaa !12
  %46 = getelementptr inbounds nuw i8, ptr %40, i64 18
  store i16 4, ptr %46, align 2, !tbaa !12
  %47 = getelementptr inbounds nuw i8, ptr %40, i64 24
  store ptr %2, ptr %47, align 8, !tbaa !4
  %48 = getelementptr inbounds nuw i8, ptr %40, i64 32
  store ptr %1, ptr %48, align 8, !tbaa !4
  %49 = getelementptr inbounds nuw i8, ptr %40, i64 40
  store ptr %6, ptr %49, align 8, !tbaa !4
  %50 = getelementptr inbounds nuw i8, ptr %40, i64 48
  store ptr %3, ptr %50, align 8, !tbaa !4
  %51 = tail call ptr @lean_apply_4(ptr noundef %6, ptr noundef nonnull inttoptr (i64 1 to ptr), ptr noundef nonnull inttoptr (i64 1 to ptr), ptr noundef %25, ptr noundef nonnull %40) #3
  ret ptr %51
}